target datalayout = "e-m:e-p270:32:32-p271:32:32-p272:64:64-i64:64-i128:128-f80:128-n8:16:32:64-S128"
target triple = "x86_64-pc-linux-gnu"

@.str.124 = private unnamed_addr constant [6 x i8] c"%s/%s\00", align 1
@.str.125 = private unnamed_addr constant [5 x i8] c"PATH\00", align 1
@.str.126 = private unnamed_addr constant [16 x i8] c".:/bin:/usr/bin\00", align 1

; Function Attrs: nounwind null_pointer_is_valid sspstrong uwtable
define internal void @lemon_strcpy(ptr noundef %0, ptr noundef %1) #2 {
  %3 = alloca ptr, align 8
  %4 = alloca ptr, align 8
  store ptr %0, ptr %3, align 8
  store ptr %1, ptr %4, align 8
  br label %5

5:                                                ; preds = %13, %2
  %6 = load ptr, ptr %4, align 8
  %7 = getelementptr i8, ptr %6, i32 1
  store ptr %7, ptr %4, align 8
  %8 = load i8, ptr %6, align 1
  %9 = load ptr, ptr %3, align 8
  %10 = getelementptr i8, ptr %9, i32 1
  store ptr %10, ptr %3, align 8
  store i8 %8, ptr %9, align 1
  %11 = sext i8 %8 to i32
  %12 = icmp ne i32 %11, 0
  br i1 %12, label %13, label %14

13:                                               ; preds = %5
  br label %5, !llvm.loop !198

14:                                               ; preds = %5
  ret void
}

; Function Attrs: null_pointer_is_valid sspstrong uwtable
define hidden ptr @pathsearch(ptr noundef %0, ptr noundef %1, i32 noundef %2) #0 {
  %4 = alloca ptr, align 8
  %5 = alloca ptr, align 8
  %6 = alloca i32, align 4
  %7 = alloca ptr, align 8
  %8 = alloca ptr, align 8
  %9 = alloca ptr, align 8
  %10 = alloca ptr, align 8
  %11 = alloca ptr, align 8
  %12 = alloca i8, align 1
  store ptr %0, ptr %4, align 8
  store ptr %1, ptr %5, align 8
  store i32 %2, ptr %6, align 4
  call void @llvm.lifetime.start.p0(i64 8, ptr %7) #18
  call void @llvm.lifetime.start.p0(i64 8, ptr %8) #18
  store ptr null, ptr %8, align 8
  call void @llvm.lifetime.start.p0(i64 8, ptr %9) #18
  store ptr null, ptr %9, align 8
  call void @llvm.lifetime.start.p0(i64 8, ptr %10) #18
  call void @llvm.lifetime.start.p0(i64 8, ptr %11) #18
  call void @llvm.lifetime.start.p0(i64 1, ptr %12) #18
  %13 = load ptr, ptr %4, align 8
  %14 = call ptr @strrchr(ptr noundef %13, i32 noundef 47) #22
  store ptr %14, ptr %11, align 8
  %15 = load ptr, ptr %11, align 8
  %16 = icmp ne ptr %15, null
  br i1 %16, label %17, label %41

17:                                               ; preds = %3
  %18 = load ptr, ptr %11, align 8
  %19 = load i8, ptr %18, align 1
  store i8 %19, ptr %12, align 1
  %20 = load ptr, ptr %11, align 8
  store i8 0, ptr %20, align 1
  %21 = load ptr, ptr %4, align 8
  %22 = call i64 @strlen(ptr noundef %21) #22
  %23 = trunc i64 %22 to i32
  %24 = load ptr, ptr %5, align 8
  %25 = call i64 @strlen(ptr noundef %24) #22
  %26 = trunc i64 %25 to i32
  %27 = add i32 %23, %26
  %28 = add i32 %27, 2
  %29 = sext i32 %28 to i64
  %30 = call noalias ptr @malloc(i64 noundef %29) #23
  store ptr %30, ptr %10, align 8
  %31 = load ptr, ptr %10, align 8
  %32 = icmp ne ptr %31, null
  br i1 %32, label %33, label %38

33:                                               ; preds = %17
  %34 = load ptr, ptr %10, align 8
  %35 = load ptr, ptr %4, align 8
  %36 = load ptr, ptr %5, align 8
  %37 = call i32 (ptr, ptr, ...) @lemon_sprintf(ptr noundef %34, ptr noundef @.str.124, ptr noundef %35, ptr noundef %36)
  br label %38

38:                                               ; preds = %33, %17
  %39 = load i8, ptr %12, align 1
  %40 = load ptr, ptr %11, align 8
  store i8 %39, ptr %40, align 1
  br label %117

41:                                               ; preds = %3
  %42 = call ptr @getenv(ptr noundef @.str.125) #18
  store ptr %42, ptr %7, align 8
  %43 = load ptr, ptr %7, align 8
  %44 = icmp eq ptr %43, null
  br i1 %44, label %45, label %46

45:                                               ; preds = %41
  store ptr @.str.126, ptr %7, align 8
  br label %46

46:                                               ; preds = %45, %41
  %47 = load ptr, ptr %7, align 8
  %48 = call i64 @strlen(ptr noundef %47) #22
  %49 = trunc i64 %48 to i32
  %50 = add i32 %49, 1
  %51 = sext i32 %50 to i64
  %52 = call noalias ptr @malloc(i64 noundef %51) #23
  store ptr %52, ptr %9, align 8
  %53 = load ptr, ptr %7, align 8
  %54 = call i64 @strlen(ptr noundef %53) #22
  %55 = trunc i64 %54 to i32
  %56 = load ptr, ptr %5, align 8
  %57 = call i64 @strlen(ptr noundef %56) #22
  %58 = trunc i64 %57 to i32
  %59 = add i32 %55, %58
  %60 = add i32 %59, 2
  %61 = sext i32 %60 to i64
  %62 = call noalias ptr @malloc(i64 noundef %61) #23
  store ptr %62, ptr %10, align 8
  %63 = load ptr, ptr %9, align 8
  %64 = icmp ne ptr %63, null
  br i1 %64, label %65, label %115

65:                                               ; preds = %46
  %66 = load ptr, ptr %10, align 8
  %67 = icmp ne ptr %66, null
  br i1 %67, label %68, label %115

68:                                               ; preds = %65
  %69 = load ptr, ptr %9, align 8
  store ptr %69, ptr %8, align 8
  %70 = load ptr, ptr %9, align 8
  %71 = load ptr, ptr %7, align 8
  call void @lemon_strcpy(ptr noundef %70, ptr noundef %71)
  br label %72

72:                                               ; preds = %113, %68
  %73 = load ptr, ptr %9, align 8
  %74 = load i8, ptr %73, align 1
  %75 = icmp ne i8 %74, 0
  br i1 %75, label %76, label %114

76:                                               ; preds = %72
  %77 = load ptr, ptr %9, align 8
  %78 = call ptr @strchr(ptr noundef %77, i32 noundef 58) #22
  store ptr %78, ptr %11, align 8
  %79 = load ptr, ptr %11, align 8
  %80 = icmp eq ptr %79, null
  br i1 %80, label %81, label %88

81:                                               ; preds = %76
  %82 = load ptr, ptr %9, align 8
  %83 = load ptr, ptr %9, align 8
  %84 = call i64 @strlen(ptr noundef %83) #22
  %85 = trunc i64 %84 to i32
  %86 = sext i32 %85 to i64
  %87 = getelementptr i8, ptr %82, i64 %86
  store ptr %87, ptr %11, align 8
  br label %88

88:                                               ; preds = %81, %76
  %89 = load ptr, ptr %11, align 8
  %90 = load i8, ptr %89, align 1
  store i8 %90, ptr %12, align 1
  %91 = load ptr, ptr %11, align 8
  store i8 0, ptr %91, align 1
  %92 = load ptr, ptr %10, align 8
  %93 = load ptr, ptr %9, align 8
  %94 = load ptr, ptr %5, align 8
  %95 = call i32 (ptr, ptr, ...) @lemon_sprintf(ptr noundef %92, ptr noundef @.str.124, ptr noundef %93, ptr noundef %94)
  %96 = load i8, ptr %12, align 1
  %97 = load ptr, ptr %11, align 8
  store i8 %96, ptr %97, align 1
  %98 = load i8, ptr %12, align 1
  %99 = sext i8 %98 to i32
  %100 = icmp eq i32 %99, 0
  br i1 %100, label %101, label %104

101:                                              ; preds = %88
  %102 = load ptr, ptr %9, align 8
  %103 = getelementptr i8, ptr %102, i64 0
  store i8 0, ptr %103, align 1
  br label %107

104:                                              ; preds = %88
  %105 = load ptr, ptr %11, align 8
  %106 = getelementptr i8, ptr %105, i64 1
  store ptr %106, ptr %9, align 8
  br label %107

107:                                              ; preds = %104, %101
  %108 = load ptr, ptr %10, align 8
  %109 = load i32, ptr %6, align 4
  %110 = call i32 @access(ptr noundef %108, i32 noundef %109) #18
  %111 = icmp eq i32 %110, 0
  br i1 %111, label %112, label %113

112:                                              ; preds = %107
  br label %114

113:                                              ; preds = %107
  br label %72, !llvm.loop !204

114:                                              ; preds = %112, %72
  br label %115

115:                                              ; preds = %114, %65, %46
  %116 = load ptr, ptr %8, align 8
  call void @free(ptr noundef %116) #18
  br label %117

117:                                              ; preds = %115, %38
  %118 = load ptr, ptr %10, align 8
  call void @llvm.lifetime.end.p0(i64 1, ptr %12) #18
  call void @llvm.lifetime.end.p0(i64 8, ptr %11) #18
  call void @llvm.lifetime.end.p0(i64 8, ptr %10) #18
  call void @llvm.lifetime.end.p0(i64 8, ptr %9) #18
  call void @llvm.lifetime.end.p0(i64 8, ptr %8) #18
  call void @llvm.lifetime.end.p0(i64 8, ptr %7) #18
  ret ptr %118
}