; Function Attrs: null_pointer_is_valid sspstrong uwtable
define hidden noundef ptr @pathsearch(ptr noundef %0, ptr noundef %1, i32 noundef %2) local_unnamed_addr #0 {
  %4 = tail call ptr @strrchr(ptr noundef %0, i32 noundef 47) #45
  %.not = icmp eq ptr %4, null
  br i1 %.not, label %15, label %5

5:                                                ; preds = %3
  %6 = load i8, ptr %4, align 1
  store i8 0, ptr %4, align 1
  %7 = tail call i64 @strlen(ptr noundef %0) #45
  %8 = tail call i64 @strlen(ptr noundef %1) #45
  %9 = add i64 %8, %7
  %10 = shl i64 %9, 32
  %sext51 = add i64 %10, 8589934592
  %11 = ashr exact i64 %sext51, 32
  %12 = tail call noalias ptr @malloc(i64 noundef %11) #44
  %.not52 = icmp eq ptr %12, null
  br i1 %.not52, label %14, label %13

13:                                               ; preds = %5
  tail call void (ptr, ptr, ...) @lemon_sprintf(ptr noundef nonnull %12, ptr noundef nonnull @.str.124, ptr noundef %0, ptr noundef %1)
  br label %14

14:                                               ; preds = %13, %5
  store i8 %6, ptr %4, align 1
  br label %49

15:                                               ; preds = %3
  %16 = tail call ptr @getenv(ptr noundef nonnull @.str.125) #42
  %17 = icmp eq ptr %16, null
  %spec.store.select = select i1 %17, ptr @.str.126, ptr %16
  %18 = tail call i64 @strlen(ptr noundef nonnull dereferenceable(1) %spec.store.select) #45
  %19 = shl i64 %18, 32
  %sext = add i64 %19, 4294967296
  %20 = ashr exact i64 %sext, 32
  %21 = tail call noalias ptr @malloc(i64 noundef %20) #44
  %22 = tail call i64 @strlen(ptr noundef %1) #45
  %23 = add i64 %22, %18
  %24 = shl i64 %23, 32
  %sext48 = add i64 %24, 8589934592
  %25 = ashr exact i64 %sext48, 32
  %26 = tail call noalias ptr @malloc(i64 noundef %25) #44
  %27 = icmp ne ptr %21, null
  %28 = icmp ne ptr %26, null
  %or.cond = and i1 %27, %28
  br i1 %or.cond, label %.preheader, label %.loopexit

.preheader:                                       ; preds = %15, %.preheader
  %.02.i = phi ptr [ %31, %.preheader ], [ %21, %15 ]
  %.0.i = phi ptr [ %29, %.preheader ], [ %spec.store.select, %15 ]
  %29 = getelementptr i8, ptr %.0.i, i64 1
  %30 = load i8, ptr %.0.i, align 1
  %31 = getelementptr i8, ptr %.02.i, i64 1
  store i8 %30, ptr %.02.i, align 1
  %.not.i = icmp eq i8 %30, 0
  br i1 %.not.i, label %lemon_strcpy.exit, label %.preheader, !llvm.loop !104

lemon_strcpy.exit:                                ; preds = %.preheader, %46
  %.041 = phi ptr [ %.1, %46 ], [ %21, %.preheader ]
  %32 = load i8, ptr %.041, align 1
  %.not49 = icmp eq i8 %32, 0
  br i1 %.not49, label %.loopexit, label %33

33:                                               ; preds = %lemon_strcpy.exit
  %34 = tail call ptr @strchr(ptr noundef %.041, i32 noundef 58) #45
  %35 = icmp eq ptr %34, null
  br i1 %35, label %36, label %40

36:                                               ; preds = %33
  %37 = tail call i64 @strlen(ptr noundef %.041) #45
  %sext50 = shl i64 %37, 32
  %38 = ashr exact i64 %sext50, 32
  %39 = getelementptr i8, ptr %.041, i64 %38
  br label %40

40:                                               ; preds = %36, %33
  %.0 = phi ptr [ %39, %36 ], [ %34, %33 ]
  %41 = load i8, ptr %.0, align 1
  store i8 0, ptr %.0, align 1
  tail call void (ptr, ptr, ...) @lemon_sprintf(ptr noundef nonnull %26, ptr noundef nonnull @.str.124, ptr noundef %.041, ptr noundef %1)
  store i8 %41, ptr %.0, align 1
  %42 = icmp eq i8 %41, 0
  br i1 %42, label %43, label %44

43:                                               ; preds = %40
  store i8 0, ptr %.041, align 1
  br label %46

44:                                               ; preds = %40
  %45 = getelementptr i8, ptr %.0, i64 1
  br label %46

46:                                               ; preds = %44, %43
  %.1 = phi ptr [ %.041, %43 ], [ %45, %44 ]
  %47 = tail call i32 @access(ptr noundef nonnull %26, i32 noundef %2) #42
  %48 = icmp eq i32 %47, 0
  br i1 %48, label %.loopexit, label %lemon_strcpy.exit, !llvm.loop !214

.loopexit:                                        ; preds = %lemon_strcpy.exit, %46, %15
  %.042 = phi ptr [ null, %15 ], [ %21, %46 ], [ %21, %lemon_strcpy.exit ]
  tail call void @free(ptr noundef %.042) #42
  br label %49

49:                                               ; preds = %.loopexit, %14
  %.040 = phi ptr [ %12, %14 ], [ %26, %.loopexit ]
  ret ptr %.040
}